target datalayout = "e-m:e-p270:32:32-p271:32:32-p272:64:64-i64:64-i128:128-f80:128-n8:16:32:64-S128"
target triple = "x86_64-pc-linux-gnu"

%struct._zend_executor_globals = type { %struct._zval_struct, %struct._zval_struct, [32 x ptr], ptr, ptr, %struct._zend_array, %struct._zend_array, ptr, i32, i32, ptr, ptr, ptr, ptr, ptr, ptr, i64, ptr, ptr, i32, i32, i64, i32, i32, i32, i8, i8, %struct.zend_atomic_bool_s, %struct.zend_atomic_bool_s, ptr, i64, ptr, ptr, %struct._zend_array, %struct._zend_array, i32, i8, %struct._zval_struct, %struct._zval_struct, %struct._zend_stack, %struct._zend_stack, %struct._zend_stack, ptr, i32, i32, i64, ptr, ptr, ptr, %struct._zend_objects_store, ptr, ptr, ptr, [3 x %struct._zend_op], ptr, i8, i8, i64, i32, i32, ptr, [16 x %struct._HashTableIterator], ptr, %union._zend_function, %struct._zend_op, %struct._zend_array, i64, %struct.zend_get_gc_buffer, ptr, ptr, ptr, i64, i8, i32, ptr, ptr, i64, %struct._zend_call_stack, i64, i64, [6 x ptr] }
%struct.zend_atomic_bool_s = type { i8 }
%struct._zval_struct = type { %union._zend_value, %union.anon, %union.anon.2 }
%union._zend_value = type { i64 }
%union.anon = type { i32 }
%union.anon.2 = type { i32 }
%struct._zend_stack = type { i32, i32, i32, ptr }
%struct._zend_objects_store = type { ptr, i32, i32, i32 }
%struct._HashTableIterator = type { ptr, i32, i32 }
%union._zend_function = type { %struct._zend_op_array }
%struct._zend_op_array = type { i8, [3 x i8], i32, ptr, ptr, ptr, i32, i32, ptr, ptr, ptr, ptr, i32, i32, i32, i32, ptr, ptr, ptr, ptr, ptr, i32, i32, ptr, ptr, ptr, i32, i32, i32, i32, ptr, ptr, [6 x ptr] }
%struct._zend_op = type { ptr, %union._znode_op, %union._znode_op, %union._znode_op, i32, i32, i8, i8, i8, i8 }
%union._znode_op = type { i32 }
%struct._zend_array = type { %struct._zend_refcounted_h, %union.anon.4, i32, %union.anon.6, i32, i32, i32, i32, i64, ptr }
%struct._zend_refcounted_h = type { i32, %union.anon.3 }
%union.anon.3 = type { i32 }
%union.anon.4 = type { i32 }
%union.anon.6 = type { ptr }
%struct.zend_get_gc_buffer = type { ptr, ptr, ptr }
%struct._zend_call_stack = type { ptr, i64 }
%struct._zend_execute_data = type { ptr, ptr, ptr, ptr, %struct._zval_struct, ptr, ptr, ptr, ptr }

@executor_globals = external global %struct._zend_executor_globals, align 8
@zend_ce_division_by_zero_error = external global ptr, align 8
@.str.13 = private unnamed_addr constant [17 x i8] c"Division by zero\00", align 1
@zend_ce_arithmetic_error = external global ptr, align 8
@.str.14 = private unnamed_addr constant [48 x i8] c"Division of PHP_INT_MIN by -1 is not an integer\00", align 1

; Function Attrs: nounwind uwtable
define hidden void @zif_intdiv(ptr noundef %0, ptr noundef %1) #0 {
  %3 = alloca ptr, align 8
  %4 = alloca ptr, align 8
  %5 = alloca i1, align 1
  %6 = alloca ptr, align 8
  %7 = alloca ptr, align 8
  %8 = alloca ptr, align 8
  %9 = alloca i8, align 1
  %10 = alloca i32, align 4
  %11 = alloca i8, align 1
  %12 = alloca ptr, align 8
  %13 = alloca ptr, align 8
  %14 = alloca i1, align 1
  %15 = alloca ptr, align 8
  %16 = alloca ptr, align 8
  %17 = alloca ptr, align 8
  %18 = alloca i8, align 1
  %19 = alloca i32, align 4
  %20 = alloca i8, align 1
  %21 = alloca ptr, align 8
  %22 = alloca ptr, align 8
  %23 = alloca ptr, align 8
  %24 = alloca i8, align 1
  %25 = alloca i32, align 4
  %26 = alloca ptr, align 8
  %27 = alloca ptr, align 8
  %28 = alloca ptr, align 8
  %29 = alloca i8, align 1
  %30 = alloca i32, align 4
  %31 = alloca ptr, align 8
  %32 = alloca ptr, align 8
  %33 = alloca i64, align 8
  %34 = alloca i64, align 8
  %35 = alloca i32, align 4
  %36 = alloca i32, align 4
  %37 = alloca i32, align 4
  %38 = alloca i32, align 4
  %39 = alloca i32, align 4
  %40 = alloca ptr, align 8
  %41 = alloca ptr, align 8
  %42 = alloca i32, align 4
  %43 = alloca ptr, align 8
  %44 = alloca i8, align 1
  %45 = alloca i8, align 1
  %46 = alloca i32, align 4
  %47 = alloca ptr, align 8
  store ptr %0, ptr %31, align 8
  store ptr %1, ptr %32, align 8
  br label %48

48:                                               ; preds = %2
  store i32 0, ptr %35, align 4
  store i32 2, ptr %36, align 4
  store i32 2, ptr %37, align 4
  %49 = load ptr, ptr %31, align 8
  %50 = getelementptr inbounds %struct._zend_execute_data, ptr %49, i32 0, i32 4
  %51 = getelementptr inbounds %struct._zval_struct, ptr %50, i32 0, i32 2
  %52 = load i32, ptr %51, align 4
  store i32 %52, ptr %38, align 4
  store i32 0, ptr %39, align 4
  store ptr null, ptr %41, align 8
  store i32 0, ptr %42, align 4
  store ptr null, ptr %43, align 8
  store i8 0, ptr %44, align 1
  store i8 0, ptr %45, align 1
  store i32 0, ptr %46, align 4
  br label %53

53:                                               ; preds = %48
  %54 = load i32, ptr %38, align 4
  %55 = load i32, ptr %36, align 4
  %56 = icmp ult i32 %54, %55
  %57 = xor i1 %56, true
  %58 = xor i1 %57, true
  %59 = zext i1 %58 to i32
  %60 = sext i32 %59 to i64
  %61 = icmp ne i64 %60, 0
  br i1 %61, label %71, label %62

62:                                               ; preds = %53
  %63 = load i32, ptr %38, align 4
  %64 = load i32, ptr %37, align 4
  %65 = icmp ugt i32 %63, %64
  %66 = xor i1 %65, true
  %67 = xor i1 %66, true
  %68 = zext i1 %67 to i32
  %69 = sext i32 %68 to i64
  %70 = icmp ne i64 %69, 0
  br i1 %70, label %71, label %74

71:                                               ; preds = %62, %53
  %72 = load i32, ptr %36, align 4
  %73 = load i32, ptr %37, align 4
  call void @zend_wrong_parameters_count_error(i32 noundef %72, i32 noundef %73)
  store i32 1, ptr %46, align 4
  br label %285

74:                                               ; preds = %62
  %75 = load ptr, ptr %31, align 8
  %76 = getelementptr inbounds %struct._zval_struct, ptr %75, i64 4
  store ptr %76, ptr %40, align 8
  %77 = load i32, ptr %39, align 4
  %78 = add i32 %77, 1
  store i32 %78, ptr %39, align 4
  %79 = load i32, ptr %39, align 4
  %80 = load i32, ptr %36, align 4
  %81 = icmp ule i32 %79, %80
  br i1 %81, label %87, label %82

82:                                               ; preds = %74
  %83 = load i8, ptr %45, align 1
  %84 = trunc i8 %83 to i1
  %85 = zext i1 %84 to i32
  %86 = icmp eq i32 %85, 1
  br label %87

87:                                               ; preds = %82, %74
  %88 = phi i1 [ true, %74 ], [ %86, %82 ]
  call void @llvm.assume(i1 %88)
  %89 = load i32, ptr %39, align 4
  %90 = load i32, ptr %36, align 4
  %91 = icmp ugt i32 %89, %90
  br i1 %91, label %97, label %92

92:                                               ; preds = %87
  %93 = load i8, ptr %45, align 1
  %94 = trunc i8 %93 to i1
  %95 = zext i1 %94 to i32
  %96 = icmp eq i32 %95, 0
  br label %97

97:                                               ; preds = %92, %87
  %98 = phi i1 [ true, %87 ], [ %96, %92 ]
  call void @llvm.assume(i1 %98)
  %99 = load i8, ptr %45, align 1
  %100 = trunc i8 %99 to i1
  br i1 %100, label %101, label %112

101:                                              ; preds = %97
  %102 = load i32, ptr %39, align 4
  %103 = load i32, ptr %38, align 4
  %104 = icmp ugt i32 %102, %103
  %105 = xor i1 %104, true
  %106 = xor i1 %105, true
  %107 = zext i1 %106 to i32
  %108 = sext i32 %107 to i64
  %109 = icmp ne i64 %108, 0
  br i1 %109, label %110, label %111

110:                                              ; preds = %101
  br label %285

111:                                              ; preds = %101
  br label %112

112:                                              ; preds = %111, %97
  %113 = load ptr, ptr %40, align 8
  %114 = getelementptr inbounds %struct._zval_struct, ptr %113, i32 1
  store ptr %114, ptr %40, align 8
  %115 = load ptr, ptr %40, align 8
  store ptr %115, ptr %41, align 8
  %116 = load ptr, ptr %41, align 8
  %117 = load i32, ptr %39, align 4
  store ptr %116, ptr %21, align 8
  store ptr %33, ptr %22, align 8
  store ptr %44, ptr %23, align 8
  store i8 0, ptr %24, align 1
  store i32 %117, ptr %25, align 4
  %118 = load ptr, ptr %21, align 8
  %119 = load ptr, ptr %22, align 8
  %120 = load ptr, ptr %23, align 8
  %121 = load i8, ptr %24, align 1
  %122 = trunc i8 %121 to i1
  %123 = load i32, ptr %25, align 4
  store ptr %118, ptr %15, align 8
  store ptr %119, ptr %16, align 8
  store ptr %120, ptr %17, align 8
  %124 = zext i1 %122 to i8
  store i8 %124, ptr %18, align 1
  store i32 %123, ptr %19, align 4
  store i8 0, ptr %20, align 1
  %125 = load i8, ptr %18, align 1
  %126 = trunc i8 %125 to i1
  br i1 %126, label %127, label %129

127:                                              ; preds = %112
  %128 = load ptr, ptr %17, align 8
  store i8 0, ptr %128, align 1
  br label %129

129:                                              ; preds = %127, %112
  %130 = load ptr, ptr %15, align 8
  store ptr %130, ptr %12, align 8
  %131 = load ptr, ptr %12, align 8
  %132 = getelementptr inbounds %struct._zval_struct, ptr %131, i32 0, i32 1
  %133 = load i8, ptr %132, align 8
  %134 = zext i8 %133 to i32
  %135 = icmp eq i32 %134, 4
  br i1 %135, label %136, label %140

136:                                              ; preds = %129
  %137 = load ptr, ptr %15, align 8
  %138 = load i64, ptr %137, align 8
  %139 = load ptr, ptr %16, align 8
  store i64 %138, ptr %139, align 8
  br label %166

140:                                              ; preds = %129
  %141 = load i8, ptr %18, align 1
  %142 = trunc i8 %141 to i1
  br i1 %142, label %143, label %153

143:                                              ; preds = %140
  %144 = load ptr, ptr %15, align 8
  store ptr %144, ptr %13, align 8
  %145 = load ptr, ptr %13, align 8
  %146 = getelementptr inbounds %struct._zval_struct, ptr %145, i32 0, i32 1
  %147 = load i8, ptr %146, align 8
  %148 = zext i8 %147 to i32
  %149 = icmp eq i32 %148, 1
  br i1 %149, label %150, label %153

150:                                              ; preds = %143
  %151 = load ptr, ptr %17, align 8
  store i8 1, ptr %151, align 1
  %152 = load ptr, ptr %16, align 8
  store i64 0, ptr %152, align 8
  br label %166

153:                                              ; preds = %143, %140
  %154 = load i8, ptr %20, align 1
  %155 = trunc i8 %154 to i1
  br i1 %155, label %156, label %161

156:                                              ; preds = %153
  %157 = load ptr, ptr %15, align 8
  %158 = load ptr, ptr %16, align 8
  %159 = load i32, ptr %19, align 4
  %160 = call zeroext i1 @zend_flf_parse_arg_long_slow(ptr noundef %157, ptr noundef %158, i32 noundef %159) #12
  store i1 %160, ptr %14, align 1
  br label %167

161:                                              ; preds = %153
  %162 = load ptr, ptr %15, align 8
  %163 = load ptr, ptr %16, align 8
  %164 = load i32, ptr %19, align 4
  %165 = call zeroext i1 @zend_parse_arg_long_slow(ptr noundef %162, ptr noundef %163, i32 noundef %164) #12
  store i1 %165, ptr %14, align 1
  br label %167

166:                                              ; preds = %150, %136
  store i1 true, ptr %14, align 1
  br label %167

167:                                              ; preds = %166, %161, %156
  %168 = load i1, ptr %14, align 1
  %169 = xor i1 %168, true
  %170 = xor i1 %169, true
  %171 = xor i1 %170, true
  %172 = zext i1 %171 to i32
  %173 = sext i32 %172 to i64
  %174 = icmp ne i64 %173, 0
  br i1 %174, label %175, label %176

175:                                              ; preds = %167
  store i32 0, ptr %42, align 4
  store i32 9, ptr %46, align 4
  br label %285

176:                                              ; preds = %167
  %177 = load i32, ptr %39, align 4
  %178 = add i32 %177, 1
  store i32 %178, ptr %39, align 4
  %179 = load i32, ptr %39, align 4
  %180 = load i32, ptr %36, align 4
  %181 = icmp ule i32 %179, %180
  br i1 %181, label %187, label %182

182:                                              ; preds = %176
  %183 = load i8, ptr %45, align 1
  %184 = trunc i8 %183 to i1
  %185 = zext i1 %184 to i32
  %186 = icmp eq i32 %185, 1
  br label %187

187:                                              ; preds = %182, %176
  %188 = phi i1 [ true, %176 ], [ %186, %182 ]
  call void @llvm.assume(i1 %188)
  %189 = load i32, ptr %39, align 4
  %190 = load i32, ptr %36, align 4
  %191 = icmp ugt i32 %189, %190
  br i1 %191, label %197, label %192

192:                                              ; preds = %187
  %193 = load i8, ptr %45, align 1
  %194 = trunc i8 %193 to i1
  %195 = zext i1 %194 to i32
  %196 = icmp eq i32 %195, 0
  br label %197

197:                                              ; preds = %192, %187
  %198 = phi i1 [ true, %187 ], [ %196, %192 ]
  call void @llvm.assume(i1 %198)
  %199 = load i8, ptr %45, align 1
  %200 = trunc i8 %199 to i1
  br i1 %200, label %201, label %212

201:                                              ; preds = %197
  %202 = load i32, ptr %39, align 4
  %203 = load i32, ptr %38, align 4
  %204 = icmp ugt i32 %202, %203
  %205 = xor i1 %204, true
  %206 = xor i1 %205, true
  %207 = zext i1 %206 to i32
  %208 = sext i32 %207 to i64
  %209 = icmp ne i64 %208, 0
  br i1 %209, label %210, label %211

210:                                              ; preds = %201
  br label %285

211:                                              ; preds = %201
  br label %212

212:                                              ; preds = %211, %197
  %213 = load ptr, ptr %40, align 8
  %214 = getelementptr inbounds %struct._zval_struct, ptr %213, i32 1
  store ptr %214, ptr %40, align 8
  %215 = load ptr, ptr %40, align 8
  store ptr %215, ptr %41, align 8
  %216 = load ptr, ptr %41, align 8
  %217 = load i32, ptr %39, align 4
  store ptr %216, ptr %26, align 8
  store ptr %34, ptr %27, align 8
  store ptr %44, ptr %28, align 8
  store i8 0, ptr %29, align 1
  store i32 %217, ptr %30, align 4
  %218 = load ptr, ptr %26, align 8
  %219 = load ptr, ptr %27, align 8
  %220 = load ptr, ptr %28, align 8
  %221 = load i8, ptr %29, align 1
  %222 = trunc i8 %221 to i1
  %223 = load i32, ptr %30, align 4
  store ptr %218, ptr %6, align 8
  store ptr %219, ptr %7, align 8
  store ptr %220, ptr %8, align 8
  %224 = zext i1 %222 to i8
  store i8 %224, ptr %9, align 1
  store i32 %223, ptr %10, align 4
  store i8 0, ptr %11, align 1
  %225 = load i8, ptr %9, align 1
  %226 = trunc i8 %225 to i1
  br i1 %226, label %227, label %229

227:                                              ; preds = %212
  %228 = load ptr, ptr %8, align 8
  store i8 0, ptr %228, align 1
  br label %229

229:                                              ; preds = %227, %212
  %230 = load ptr, ptr %6, align 8
  store ptr %230, ptr %3, align 8
  %231 = load ptr, ptr %3, align 8
  %232 = getelementptr inbounds %struct._zval_struct, ptr %231, i32 0, i32 1
  %233 = load i8, ptr %232, align 8
  %234 = zext i8 %233 to i32
  %235 = icmp eq i32 %234, 4
  br i1 %235, label %236, label %240

236:                                              ; preds = %229
  %237 = load ptr, ptr %6, align 8
  %238 = load i64, ptr %237, align 8
  %239 = load ptr, ptr %7, align 8
  store i64 %238, ptr %239, align 8
  br label %266

240:                                              ; preds = %229
  %241 = load i8, ptr %9, align 1
  %242 = trunc i8 %241 to i1
  br i1 %242, label %243, label %253

243:                                              ; preds = %240
  %244 = load ptr, ptr %6, align 8
  store ptr %244, ptr %4, align 8
  %245 = load ptr, ptr %4, align 8
  %246 = getelementptr inbounds %struct._zval_struct, ptr %245, i32 0, i32 1
  %247 = load i8, ptr %246, align 8
  %248 = zext i8 %247 to i32
  %249 = icmp eq i32 %248, 1
  br i1 %249, label %250, label %253

250:                                              ; preds = %243
  %251 = load ptr, ptr %8, align 8
  store i8 1, ptr %251, align 1
  %252 = load ptr, ptr %7, align 8
  store i64 0, ptr %252, align 8
  br label %266

253:                                              ; preds = %243, %240
  %254 = load i8, ptr %11, align 1
  %255 = trunc i8 %254 to i1
  br i1 %255, label %256, label %261

256:                                              ; preds = %253
  %257 = load ptr, ptr %6, align 8
  %258 = load ptr, ptr %7, align 8
  %259 = load i32, ptr %10, align 4
  %260 = call zeroext i1 @zend_flf_parse_arg_long_slow(ptr noundef %257, ptr noundef %258, i32 noundef %259) #12
  store i1 %260, ptr %5, align 1
  br label %267

261:                                              ; preds = %253
  %262 = load ptr, ptr %6, align 8
  %263 = load ptr, ptr %7, align 8
  %264 = load i32, ptr %10, align 4
  %265 = call zeroext i1 @zend_parse_arg_long_slow(ptr noundef %262, ptr noundef %263, i32 noundef %264) #12
  store i1 %265, ptr %5, align 1
  br label %267

266:                                              ; preds = %250, %236
  store i1 true, ptr %5, align 1
  br label %267

267:                                              ; preds = %266, %261, %256
  %268 = load i1, ptr %5, align 1
  %269 = xor i1 %268, true
  %270 = xor i1 %269, true
  %271 = xor i1 %270, true
  %272 = zext i1 %271 to i32
  %273 = sext i32 %272 to i64
  %274 = icmp ne i64 %273, 0
  br i1 %274, label %275, label %276

275:                                              ; preds = %267
  store i32 0, ptr %42, align 4
  store i32 9, ptr %46, align 4
  br label %285

276:                                              ; preds = %267
  %277 = load i32, ptr %39, align 4
  %278 = load i32, ptr %37, align 4
  %279 = icmp eq i32 %277, %278
  br i1 %279, label %283, label %280

280:                                              ; preds = %276
  %281 = load i32, ptr %37, align 4
  %282 = icmp eq i32 %281, -1
  br label %283

283:                                              ; preds = %280, %276
  %284 = phi i1 [ true, %276 ], [ %282, %280 ]
  call void @llvm.assume(i1 %284)
  br label %285

285:                                              ; preds = %283, %275, %210, %175, %110, %71
  %286 = load i32, ptr %46, align 4
  %287 = icmp ne i32 %286, 0
  %288 = xor i1 %287, true
  %289 = xor i1 %288, true
  %290 = zext i1 %289 to i32
  %291 = sext i32 %290 to i64
  %292 = icmp ne i64 %291, 0
  br i1 %292, label %293, label %299

293:                                              ; preds = %285
  %294 = load i32, ptr %46, align 4
  %295 = load i32, ptr %39, align 4
  %296 = load ptr, ptr %43, align 8
  %297 = load i32, ptr %42, align 4
  %298 = load ptr, ptr %41, align 8
  call void @zend_wrong_parameter_error(i32 noundef %294, i32 noundef %295, ptr noundef %296, i32 noundef %297, ptr noundef %298)
  br label %336

299:                                              ; preds = %285
  br label %300

300:                                              ; preds = %299
  %301 = load i64, ptr %34, align 8
  %302 = icmp eq i64 %301, 0
  br i1 %302, label %303, label %310

303:                                              ; preds = %300
  %304 = load ptr, ptr @zend_ce_division_by_zero_error, align 8
  %305 = call ptr (ptr, i64, ptr, ...) @zend_throw_exception_ex(ptr noundef %304, i64 noundef 0, ptr noundef @.str.13)
  br label %306

306:                                              ; preds = %303
  %307 = load ptr, ptr getelementptr inbounds (%struct._zend_executor_globals, ptr @executor_globals, i32 0, i32 50), align 8
  %308 = icmp ne ptr %307, null
  call void @llvm.assume(i1 %308)
  br label %336

309:                                              ; No predecessors!
  br label %324

310:                                              ; preds = %300
  %311 = load i64, ptr %34, align 8
  %312 = icmp eq i64 %311, -1
  br i1 %312, label %313, label %323

313:                                              ; preds = %310
  %314 = load i64, ptr %33, align 8
  %315 = icmp eq i64 %314, -9223372036854775808
  br i1 %315, label %316, label %323

316:                                              ; preds = %313
  %317 = load ptr, ptr @zend_ce_arithmetic_error, align 8
  %318 = call ptr (ptr, i64, ptr, ...) @zend_throw_exception_ex(ptr noundef %317, i64 noundef 0, ptr noundef @.str.14)
  br label %319

319:                                              ; preds = %316
  %320 = load ptr, ptr getelementptr inbounds (%struct._zend_executor_globals, ptr @executor_globals, i32 0, i32 50), align 8
  %321 = icmp ne ptr %320, null
  call void @llvm.assume(i1 %321)
  br label %336

322:                                              ; No predecessors!
  br label %323

323:                                              ; preds = %322, %313, %310
  br label %324

324:                                              ; preds = %323, %309
  br label %325

325:                                              ; preds = %324
  br label %326

326:                                              ; preds = %325
  %327 = load ptr, ptr %32, align 8
  store ptr %327, ptr %47, align 8
  %328 = load i64, ptr %33, align 8
  %329 = load i64, ptr %34, align 8
  %330 = sdiv i64 %328, %329
  %331 = load ptr, ptr %47, align 8
  %332 = getelementptr inbounds %struct._zval_struct, ptr %331, i32 0, i32 0
  store i64 %330, ptr %332, align 8
  %333 = load ptr, ptr %47, align 8
  %334 = getelementptr inbounds %struct._zval_struct, ptr %333, i32 0, i32 1
  store i32 4, ptr %334, align 8
  br label %335

335:                                              ; preds = %326
  br label %336

336:                                              ; preds = %335, %319, %306, %293
  ret void
}