; Function Attrs: nounwind uwtable
define hidden void @zif_intdiv(ptr noundef %0, ptr nocapture noundef writeonly %1) local_unnamed_addr #0 {
  %3 = alloca i64, align 8
  %4 = alloca i64, align 8
  %5 = getelementptr inbounds i8, ptr %0, i64 44
  %6 = load i32, ptr %5, align 4
  %.not = icmp eq i32 %6, 2
  br i1 %.not, label %8, label %7

7:                                                ; preds = %2
  tail call void @zend_wrong_parameters_count_error(i32 noundef 2, i32 noundef 2) #15
  br label %.thread116

8:                                                ; preds = %2
  %9 = getelementptr inbounds i8, ptr %0, i64 80
  %10 = getelementptr inbounds i8, ptr %0, i64 88
  %11 = load i8, ptr %10, align 8
  %12 = icmp eq i8 %11, 4
  br i1 %12, label %.critedge, label %14

.critedge:                                        ; preds = %8
  %13 = load i64, ptr %9, align 8
  store i64 %13, ptr %3, align 8
  br label %16

14:                                               ; preds = %8
  %15 = call zeroext i1 @zend_parse_arg_long_slow(ptr noundef nonnull %9, ptr noundef nonnull %3, i32 noundef 1) #15
  br i1 %15, label %16, label %.thread116

16:                                               ; preds = %14, %.critedge
  %17 = getelementptr inbounds i8, ptr %0, i64 96
  %18 = getelementptr inbounds i8, ptr %0, i64 104
  %19 = load i8, ptr %18, align 8
  %20 = icmp eq i8 %19, 4
  br i1 %20, label %.thread112, label %22

.thread112:                                       ; preds = %16
  %21 = load i64, ptr %17, align 8
  store i64 %21, ptr %4, align 8
  br label %.thread130

22:                                               ; preds = %16
  %23 = call zeroext i1 @zend_parse_arg_long_slow(ptr noundef nonnull %17, ptr noundef nonnull %4, i32 noundef 2) #15
  %.fr = freeze i1 %23
  br i1 %.fr, label %.thread130thread-pre-split, label %.thread116

.thread116:                                       ; preds = %14, %7, %22
  %.096123 = phi i32 [ 9, %22 ], [ 9, %14 ], [ 1, %7 ]
  %.098122 = phi i32 [ 2, %22 ], [ 1, %14 ], [ 0, %7 ]
  %.0100121 = phi ptr [ %17, %22 ], [ %9, %14 ], [ null, %7 ]
  call void @zend_wrong_parameter_error(i32 noundef %.096123, i32 noundef %.098122, ptr noundef null, i32 noundef 0, ptr noundef %.0100121) #15
  br label %43

.thread130thread-pre-split:                       ; preds = %22
  %.pr = load i64, ptr %4, align 8
  br label %.thread130

.thread130:                                       ; preds = %.thread130thread-pre-split, %.thread112
  %24 = phi i64 [ %.pr, %.thread130thread-pre-split ], [ %21, %.thread112 ]
  %25 = icmp eq i64 %24, 0
  br i1 %25, label %26, label %31

26:                                               ; preds = %.thread130
  %27 = load ptr, ptr @zend_ce_division_by_zero_error, align 8
  %28 = call ptr (ptr, i64, ptr, ...) @zend_throw_exception_ex(ptr noundef %27, i64 noundef 0, ptr noundef nonnull @.str.13) #15
  %29 = load ptr, ptr getelementptr inbounds (%struct._zend_executor_globals, ptr @executor_globals, i64 0, i32 50), align 8
  %30 = icmp ne ptr %29, null
  call void @llvm.assume(i1 %30)
  br label %43

31:                                               ; preds = %.thread130
  %32 = icmp eq i64 %24, -1
  %33 = load i64, ptr %3, align 8
  %34 = icmp eq i64 %33, -9223372036854775808
  %or.cond = select i1 %32, i1 %34, i1 false
  br i1 %or.cond, label %35, label %40

35:                                               ; preds = %31
  %36 = load ptr, ptr @zend_ce_arithmetic_error, align 8
  %37 = call ptr (ptr, i64, ptr, ...) @zend_throw_exception_ex(ptr noundef %36, i64 noundef 0, ptr noundef nonnull @.str.14) #15
  %38 = load ptr, ptr getelementptr inbounds (%struct._zend_executor_globals, ptr @executor_globals, i64 0, i32 50), align 8
  %39 = icmp ne ptr %38, null
  call void @llvm.assume(i1 %39)
  br label %43

40:                                               ; preds = %31
  %41 = sdiv i64 %33, %24
  store i64 %41, ptr %1, align 8
  %42 = getelementptr inbounds i8, ptr %1, i64 8
  store i32 4, ptr %42, align 8
  br label %43

43:                                               ; preds = %40, %35, %26, %.thread116
  ret void
}